; ModuleID = 'bench/libigl/original/get_seconds.ll'
source_filename = "bench/libigl/original/get_seconds.ll"
target datalayout = "e-m:e-p270:32:32-p271:32:32-p272:64:64-i64:64-i128:128-f80:128-n8:16:32:64-S128"
target triple = "x86_64-pc-linux-gnu"

; Function Attrs: mustprogress nounwind uwtable
define dso_local noundef double @_ZN3igl11get_secondsEv() local_unnamed_addr #0 {
  %1 = tail call i64 @_ZNSt6chrono3_V212system_clock3nowEv() #2
  %2 = sitofp i64 %1 to double
  %3 = fdiv double %2, 1.000000e+09
  ret double %3
}

; Function Attrs: nounwind
declare i64 @_ZNSt6chrono3_V212system_clock3nowEv() local_unnamed_addr #1


!llvm.module.flags = !{!0, !1, !2, !3}

!0 = !{i32 1, !"wchar_size", i32 4}
!1 = !{i32 8, !"PIC Level", i32 2}
!2 = !{i32 7, !"PIE Level", i32 2}
!3 = !{i32 7, !"uwtable", i32 2}
